target datalayout = "e-m:e-p270:32:32-p271:32:32-p272:64:64-i64:64-i128:128-f80:128-n8:16:32:64-S128"
target triple = "x86_64-pc-linux-gnu"

%"class.std::__shared_count" = type { ptr }
%"class.cv::bioinspired::RetinaImpl" = type <{ %"class.cv::bioinspired::Retina", %"struct.cv::bioinspired::RetinaParameters", %"class.std::valarray", %"struct.cv::Ptr.4", i8, [7 x i8] }>
%"class.cv::bioinspired::Retina" = type { %"class.cv::Algorithm" }
%"class.cv::Algorithm" = type { ptr }
%"struct.cv::bioinspired::RetinaParameters" = type { %"struct.cv::bioinspired::RetinaParameters::OPLandIplParvoParameters", %"struct.cv::bioinspired::RetinaParameters::IplMagnoParameters" }
%"struct.cv::bioinspired::RetinaParameters::OPLandIplParvoParameters" = type { i8, i8, float, float, float, float, float, float, float }
%"struct.cv::bioinspired::RetinaParameters::IplMagnoParameters" = type { i8, float, float, float, float, float, float, float }
%"class.std::valarray" = type { i64, ptr }
%"struct.cv::Ptr.4" = type { %"class.std::shared_ptr.5" }
%"class.std::shared_ptr.5" = type { %"class.std::__shared_ptr.6" }
%"class.std::__shared_ptr.6" = type { ptr, %"class.std::__shared_count" }
%"class.cv::bioinspired::RetinaFilter" = type <{ i8, i8, [2 x i8], i32, i32, [4 x i8], %"class.std::valarray", %"class.std::valarray", %"class.cv::bioinspired::BasicRetinaFilter", %"class.cv::bioinspired::ParvoRetinaFilter", %"class.cv::bioinspired::MagnoRetinaFilter", %"class.cv::bioinspired::RetinaColor", ptr, i8, i8, i8, i8, float, i8, [7 x i8] }>
%"class.cv::bioinspired::BasicRetinaFilter" = type { %"class.cv::bioinspired::TemplateBuffer", %"class.std::valarray", i32, i32, %"class.std::valarray", %"class.std::valarray", %"class.std::valarray", float, float, float, float, float, float, float, float }
%"class.cv::bioinspired::TemplateBuffer" = type { ptr, %"class.std::valarray", i64, i64, i64, i64, i64 }
%"class.cv::bioinspired::ParvoRetinaFilter" = type { ptr, %"class.cv::bioinspired::BasicRetinaFilter", %"class.std::valarray", %"class.std::valarray", %"class.std::valarray", %"class.std::valarray", %"class.std::valarray", %"class.std::valarray", %"class.std::valarray", ptr, ptr }
%"class.cv::bioinspired::MagnoRetinaFilter" = type <{ ptr, %"class.cv::bioinspired::BasicRetinaFilter", %"class.std::valarray", %"class.std::valarray", %"class.std::valarray", %"class.std::valarray", %"class.std::valarray", %"class.std::valarray", %"class.std::valarray", %"class.std::valarray", ptr, ptr, float, [4 x i8] }>
%"class.cv::bioinspired::RetinaColor" = type <{ ptr, %"class.cv::bioinspired::BasicRetinaFilter", i32, i8, [3 x i8], float, [4 x i8], ptr, ptr, %"class.std::valarray.8", %"class.std::valarray", %"class.std::valarray", %"class.std::valarray", %"class.std::valarray", %"class.std::valarray", %"class.std::valarray", %"class.std::valarray", float, float, float, i8, [3 x i8] }>
%"class.std::valarray.8" = type { i64, ptr }

; Function Attrs: mustprogress nounwind uwtable
define linkonce_odr hidden void @_ZN2cv11bioinspired17BasicRetinaFilter25setV0CompressionParameterEf(ptr noundef nonnull align 8 dereferenceable(168) %0, float noundef %1) #9 comdat align 2 {
  %3 = alloca ptr, align 8
  %4 = alloca float, align 4
  store ptr %0, ptr %3, align 8, !tbaa !196
  store float %1, ptr %4, align 4, !tbaa !16
  %5 = load ptr, ptr %3, align 8
  %6 = load float, ptr %4, align 4, !tbaa !16
  %7 = getelementptr inbounds nuw %"class.cv::bioinspired::BasicRetinaFilter", ptr %5, i32 0, i32 8
  %8 = load float, ptr %7, align 4, !tbaa !205
  %9 = fmul float %6, %8
  %10 = getelementptr inbounds nuw %"class.cv::bioinspired::BasicRetinaFilter", ptr %5, i32 0, i32 7
  store float %9, ptr %10, align 8, !tbaa !206
  %11 = load float, ptr %4, align 4, !tbaa !16
  %12 = getelementptr inbounds nuw %"class.cv::bioinspired::BasicRetinaFilter", ptr %5, i32 0, i32 10
  store float %11, ptr %12, align 4, !tbaa !207
  %13 = getelementptr inbounds nuw %"class.cv::bioinspired::BasicRetinaFilter", ptr %5, i32 0, i32 8
  %14 = load float, ptr %13, align 4, !tbaa !205
  %15 = load float, ptr %4, align 4, !tbaa !16
  %16 = fsub float 1.000000e+00, %15
  %17 = fmul float %14, %16
  %18 = getelementptr inbounds nuw %"class.cv::bioinspired::BasicRetinaFilter", ptr %5, i32 0, i32 11
  store float %17, ptr %18, align 8, !tbaa !208
  ret void
}

; Function Attrs: mustprogress nounwind uwtable
define linkonce_odr hidden noundef ptr @_ZNKSt12__shared_ptrIN2cv11bioinspired12RetinaFilterELN9__gnu_cxx12_Lock_policyE2EE3getEv(ptr noundef nonnull align 8 dereferenceable(16) %0) #9 comdat align 2 {
  %2 = alloca ptr, align 8
  store ptr %0, ptr %2, align 8, !tbaa !281
  %3 = load ptr, ptr %2, align 8
  %4 = getelementptr inbounds nuw %"class.std::__shared_ptr.6", ptr %3, i32 0, i32 0
  %5 = load ptr, ptr %4, align 8, !tbaa !283
  ret ptr %5
}

; Function Attrs: inlinehint mustprogress nounwind uwtable
define linkonce_odr hidden void @_ZN2cv11bioinspired12RetinaFilter45activateNormalizeParvoOutput_0_maxOutputValueEb(ptr noundef nonnull align 8 dereferenceable(1217) %0, i1 noundef zeroext %1) #7 comdat align 2 {
  %3 = alloca ptr, align 8
  %4 = alloca i8, align 1
  store ptr %0, ptr %3, align 8, !tbaa !61
  %5 = zext i1 %1 to i8
  store i8 %5, ptr %4, align 1, !tbaa !12
  %6 = load ptr, ptr %3, align 8
  %7 = load i8, ptr %4, align 1, !tbaa !12, !range !57, !noundef !58
  %8 = trunc i8 %7 to i1
  %9 = getelementptr inbounds nuw %"class.cv::bioinspired::RetinaFilter", ptr %6, i32 0, i32 14
  %10 = zext i1 %8 to i8
  store i8 %10, ptr %9, align 1, !tbaa !113
  ret void
}

; Function Attrs: inlinehint mustprogress uwtable
define linkonce_odr hidden void @_ZN2cv11bioinspired12RetinaFilter47setParvoGanglionCellsLocalAdaptationSensitivityEf(ptr noundef nonnull align 8 dereferenceable(1217) %0, float noundef %1) #6 comdat align 2 {
  %3 = alloca ptr, align 8
  %4 = alloca float, align 4
  store ptr %0, ptr %3, align 8, !tbaa !61
  store float %1, ptr %4, align 4, !tbaa !16
  %5 = load ptr, ptr %3, align 8
  %6 = getelementptr inbounds nuw %"class.cv::bioinspired::RetinaFilter", ptr %5, i32 0, i32 9
  %7 = getelementptr inbounds i8, ptr %6, i64 8
  %8 = load float, ptr %4, align 4, !tbaa !16
  call void @_ZN2cv11bioinspired17BasicRetinaFilter25setV0CompressionParameterEf(ptr noundef nonnull align 8 dereferenceable(168) %7, float noundef %8)
  call void @_ZN2cv11bioinspired12RetinaFilter19_setInitPeriodCountEv(ptr noundef nonnull align 8 dereferenceable(1217) %5)
  ret void
}

; Function Attrs: mustprogress uwtable
define linkonce_odr hidden void @_ZN2cv11bioinspired12RetinaFilter24setOPLandParvoParametersEfffffff(ptr noundef nonnull align 8 dereferenceable(1217) %0, float noundef %1, float noundef %2, float noundef %3, float noundef %4, float noundef %5, float noundef %6, float noundef %7) #4 comdat align 2 {
  %9 = alloca ptr, align 8
  %10 = alloca float, align 4
  %11 = alloca float, align 4
  %12 = alloca float, align 4
  %13 = alloca float, align 4
  %14 = alloca float, align 4
  %15 = alloca float, align 4
  %16 = alloca float, align 4
  store ptr %0, ptr %9, align 8, !tbaa !61
  store float %1, ptr %10, align 4, !tbaa !16
  store float %2, ptr %11, align 4, !tbaa !16
  store float %3, ptr %12, align 4, !tbaa !16
  store float %4, ptr %13, align 4, !tbaa !16
  store float %5, ptr %14, align 4, !tbaa !16
  store float %6, ptr %15, align 4, !tbaa !16
  store float %7, ptr %16, align 4, !tbaa !16
  %17 = load ptr, ptr %9, align 8
  %18 = getelementptr inbounds nuw %"class.cv::bioinspired::RetinaFilter", ptr %17, i32 0, i32 9
  %19 = load float, ptr %10, align 4, !tbaa !16
  %20 = load float, ptr %11, align 4, !tbaa !16
  %21 = load float, ptr %12, align 4, !tbaa !16
  %22 = load float, ptr %13, align 4, !tbaa !16
  %23 = load float, ptr %14, align 4, !tbaa !16
  %24 = load float, ptr %15, align 4, !tbaa !16
  call void @_ZN2cv11bioinspired17ParvoRetinaFilter31setOPLandParvoFiltersParametersEffffff(ptr noundef nonnull align 8 dereferenceable(304) %18, float noundef %19, float noundef %20, float noundef %21, float noundef %22, float noundef %23, float noundef %24)
  %25 = getelementptr inbounds nuw %"class.cv::bioinspired::RetinaFilter", ptr %17, i32 0, i32 9
  %26 = getelementptr inbounds i8, ptr %25, i64 8
  %27 = load float, ptr %16, align 4, !tbaa !16
  call void @_ZN2cv11bioinspired17BasicRetinaFilter25setV0CompressionParameterEf(ptr noundef nonnull align 8 dereferenceable(168) %26, float noundef %27)
  call void @_ZN2cv11bioinspired12RetinaFilter19_setInitPeriodCountEv(ptr noundef nonnull align 8 dereferenceable(1217) %17)
  ret void
}

; Function Attrs: inlinehint mustprogress uwtable
define linkonce_odr hidden void @_ZN2cv11bioinspired12RetinaFilter43setPhotoreceptorsLocalAdaptationSensitivityEf(ptr noundef nonnull align 8 dereferenceable(1217) %0, float noundef %1) #6 comdat align 2 {
  %3 = alloca ptr, align 8
  %4 = alloca float, align 4
  store ptr %0, ptr %3, align 8, !tbaa !61
  store float %1, ptr %4, align 4, !tbaa !16
  %5 = load ptr, ptr %3, align 8
  %6 = getelementptr inbounds nuw %"class.cv::bioinspired::RetinaFilter", ptr %5, i32 0, i32 8
  %7 = load float, ptr %4, align 4, !tbaa !16
  %8 = fsub float 1.000000e+00, %7
  call void @_ZN2cv11bioinspired17BasicRetinaFilter25setV0CompressionParameterEf(ptr noundef nonnull align 8 dereferenceable(168) %6, float noundef %8)
  call void @_ZN2cv11bioinspired12RetinaFilter19_setInitPeriodCountEv(ptr noundef nonnull align 8 dereferenceable(1217) %5)
  ret void
}

; Function Attrs: mustprogress nounwind uwtable
define linkonce_odr hidden void @_ZN2cv11bioinspired12RetinaFilter12setColorModeEb(ptr noundef nonnull align 8 dereferenceable(1217) %0, i1 noundef zeroext %1) #9 comdat align 2 {
  %3 = alloca ptr, align 8
  %4 = alloca i8, align 1
  store ptr %0, ptr %3, align 8, !tbaa !61
  %5 = zext i1 %1 to i8
  store i8 %5, ptr %4, align 1, !tbaa !12
  %6 = load ptr, ptr %3, align 8
  %7 = load i8, ptr %4, align 1, !tbaa !12, !range !57, !noundef !58
  %8 = trunc i8 %7 to i1
  %9 = getelementptr inbounds nuw %"class.cv::bioinspired::RetinaFilter", ptr %6, i32 0, i32 18
  %10 = zext i1 %8 to i8
  store i8 %10, ptr %9, align 8, !tbaa !112
  ret void
}

; Function Attrs: mustprogress nounwind uwtable
define linkonce_odr hidden noundef ptr @_ZNK2cv3PtrINS_11bioinspired12RetinaFilterEEptEv(ptr noundef nonnull align 8 dereferenceable(16) %0) #9 comdat align 2 {
  %2 = alloca ptr, align 8
  store ptr %0, ptr %2, align 8, !tbaa !39
  %3 = load ptr, ptr %2, align 8
  %4 = call noundef ptr @_ZNKSt12__shared_ptrIN2cv11bioinspired12RetinaFilterELN9__gnu_cxx12_Lock_policyE2EE3getEv(ptr noundef nonnull align 8 dereferenceable(16) %3) #3
  ret ptr %4
}

; Function Attrs: mustprogress uwtable
define hidden void @_ZN2cv11bioinspired10RetinaImpl26setupOPLandIPLParvoChannelEbbfffffff(ptr noundef nonnull align 8 dereferenceable(112) %0, i1 noundef zeroext %1, i1 noundef zeroext %2, float noundef %3, float noundef %4, float noundef %5, float noundef %6, float noundef %7, float noundef %8, float noundef %9) unnamed_addr #4 align 2 {
  %11 = alloca ptr, align 8
  %12 = alloca i8, align 1
  %13 = alloca i8, align 1
  %14 = alloca float, align 4
  %15 = alloca float, align 4
  %16 = alloca float, align 4
  %17 = alloca float, align 4
  %18 = alloca float, align 4
  %19 = alloca float, align 4
  %20 = alloca float, align 4
  store ptr %0, ptr %11, align 8, !tbaa !24
  %21 = zext i1 %1 to i8
  store i8 %21, ptr %12, align 1, !tbaa !12
  %22 = zext i1 %2 to i8
  store i8 %22, ptr %13, align 1, !tbaa !12
  store float %3, ptr %14, align 4, !tbaa !16
  store float %4, ptr %15, align 4, !tbaa !16
  store float %5, ptr %16, align 4, !tbaa !16
  store float %6, ptr %17, align 4, !tbaa !16
  store float %7, ptr %18, align 4, !tbaa !16
  store float %8, ptr %19, align 4, !tbaa !16
  store float %9, ptr %20, align 4, !tbaa !16
  %23 = load ptr, ptr %11, align 8
  %24 = getelementptr inbounds nuw %"class.cv::bioinspired::RetinaImpl", ptr %23, i32 0, i32 3
  %25 = call noundef ptr @_ZNK2cv3PtrINS_11bioinspired12RetinaFilterEEptEv(ptr noundef nonnull align 8 dereferenceable(16) %24) #3
  %26 = load i8, ptr %12, align 1, !tbaa !12, !range !57, !noundef !58
  %27 = trunc i8 %26 to i1
  call void @_ZN2cv11bioinspired12RetinaFilter12setColorModeEb(ptr noundef nonnull align 8 dereferenceable(1217) %25, i1 noundef zeroext %27)
  %28 = getelementptr inbounds nuw %"class.cv::bioinspired::RetinaImpl", ptr %23, i32 0, i32 3
  %29 = call noundef ptr @_ZNK2cv3PtrINS_11bioinspired12RetinaFilterEEptEv(ptr noundef nonnull align 8 dereferenceable(16) %28) #3
  %30 = load float, ptr %14, align 4, !tbaa !16
  call void @_ZN2cv11bioinspired12RetinaFilter43setPhotoreceptorsLocalAdaptationSensitivityEf(ptr noundef nonnull align 8 dereferenceable(1217) %29, float noundef %30)
  %31 = getelementptr inbounds nuw %"class.cv::bioinspired::RetinaImpl", ptr %23, i32 0, i32 3
  %32 = call noundef ptr @_ZNK2cv3PtrINS_11bioinspired12RetinaFilterEEptEv(ptr noundef nonnull align 8 dereferenceable(16) %31) #3
  %33 = load float, ptr %15, align 4, !tbaa !16
  %34 = load float, ptr %16, align 4, !tbaa !16
  %35 = load float, ptr %17, align 4, !tbaa !16
  %36 = load float, ptr %18, align 4, !tbaa !16
  %37 = load float, ptr %19, align 4, !tbaa !16
  %38 = load float, ptr %20, align 4, !tbaa !16
  call void @_ZN2cv11bioinspired12RetinaFilter24setOPLandParvoParametersEfffffff(ptr noundef nonnull align 8 dereferenceable(1217) %32, float noundef 0.000000e+00, float noundef %33, float noundef %34, float noundef %35, float noundef %36, float noundef %37, float noundef %38)
  %39 = getelementptr inbounds nuw %"class.cv::bioinspired::RetinaImpl", ptr %23, i32 0, i32 3
  %40 = call noundef ptr @_ZNK2cv3PtrINS_11bioinspired12RetinaFilterEEptEv(ptr noundef nonnull align 8 dereferenceable(16) %39) #3
  %41 = load float, ptr %20, align 4, !tbaa !16
  call void @_ZN2cv11bioinspired12RetinaFilter47setParvoGanglionCellsLocalAdaptationSensitivityEf(ptr noundef nonnull align 8 dereferenceable(1217) %40, float noundef %41)
  %42 = getelementptr inbounds nuw %"class.cv::bioinspired::RetinaImpl", ptr %23, i32 0, i32 3
  %43 = call noundef ptr @_ZNK2cv3PtrINS_11bioinspired12RetinaFilterEEptEv(ptr noundef nonnull align 8 dereferenceable(16) %42) #3
  %44 = load i8, ptr %13, align 1, !tbaa !12, !range !57, !noundef !58
  %45 = trunc i8 %44 to i1
  call void @_ZN2cv11bioinspired12RetinaFilter45activateNormalizeParvoOutput_0_maxOutputValueEb(ptr noundef nonnull align 8 dereferenceable(1217) %43, i1 noundef zeroext %45)
  %46 = load i8, ptr %12, align 1, !tbaa !12, !range !57, !noundef !58
  %47 = trunc i8 %46 to i1
  %48 = getelementptr inbounds nuw %"class.cv::bioinspired::RetinaImpl", ptr %23, i32 0, i32 1
  %49 = getelementptr inbounds nuw %"struct.cv::bioinspired::RetinaParameters", ptr %48, i32 0, i32 0
  %50 = getelementptr inbounds nuw %"struct.cv::bioinspired::RetinaParameters::OPLandIplParvoParameters", ptr %49, i32 0, i32 0
  %51 = zext i1 %47 to i8
  store i8 %51, ptr %50, align 8, !tbaa !59
  %52 = load i8, ptr %13, align 1, !tbaa !12, !range !57, !noundef !58
  %53 = trunc i8 %52 to i1
  %54 = getelementptr inbounds nuw %"class.cv::bioinspired::RetinaImpl", ptr %23, i32 0, i32 1
  %55 = getelementptr inbounds nuw %"struct.cv::bioinspired::RetinaParameters", ptr %54, i32 0, i32 0
  %56 = getelementptr inbounds nuw %"struct.cv::bioinspired::RetinaParameters::OPLandIplParvoParameters", ptr %55, i32 0, i32 1
  %57 = zext i1 %53 to i8
  store i8 %57, ptr %56, align 1, !tbaa !78
  %58 = load float, ptr %14, align 4, !tbaa !16
  %59 = getelementptr inbounds nuw %"class.cv::bioinspired::RetinaImpl", ptr %23, i32 0, i32 1
  %60 = getelementptr inbounds nuw %"struct.cv::bioinspired::RetinaParameters", ptr %59, i32 0, i32 0
  %61 = getelementptr inbounds nuw %"struct.cv::bioinspired::RetinaParameters::OPLandIplParvoParameters", ptr %60, i32 0, i32 2
  store float %58, ptr %61, align 4, !tbaa !79
  %62 = load float, ptr %15, align 4, !tbaa !16
  %63 = getelementptr inbounds nuw %"class.cv::bioinspired::RetinaImpl", ptr %23, i32 0, i32 1
  %64 = getelementptr inbounds nuw %"struct.cv::bioinspired::RetinaParameters", ptr %63, i32 0, i32 0
  %65 = getelementptr inbounds nuw %"struct.cv::bioinspired::RetinaParameters::OPLandIplParvoParameters", ptr %64, i32 0, i32 3
  store float %62, ptr %65, align 8, !tbaa !80
  %66 = load float, ptr %16, align 4, !tbaa !16
  %67 = getelementptr inbounds nuw %"class.cv::bioinspired::RetinaImpl", ptr %23, i32 0, i32 1
  %68 = getelementptr inbounds nuw %"struct.cv::bioinspired::RetinaParameters", ptr %67, i32 0, i32 0
  %69 = getelementptr inbounds nuw %"struct.cv::bioinspired::RetinaParameters::OPLandIplParvoParameters", ptr %68, i32 0, i32 4
  store float %66, ptr %69, align 4, !tbaa !81
  %70 = load float, ptr %17, align 4, !tbaa !16
  %71 = getelementptr inbounds nuw %"class.cv::bioinspired::RetinaImpl", ptr %23, i32 0, i32 1
  %72 = getelementptr inbounds nuw %"struct.cv::bioinspired::RetinaParameters", ptr %71, i32 0, i32 0
  %73 = getelementptr inbounds nuw %"struct.cv::bioinspired::RetinaParameters::OPLandIplParvoParameters", ptr %72, i32 0, i32 5
  store float %70, ptr %73, align 8, !tbaa !82
  %74 = load float, ptr %18, align 4, !tbaa !16
  %75 = getelementptr inbounds nuw %"class.cv::bioinspired::RetinaImpl", ptr %23, i32 0, i32 1
  %76 = getelementptr inbounds nuw %"struct.cv::bioinspired::RetinaParameters", ptr %75, i32 0, i32 0
  %77 = getelementptr inbounds nuw %"struct.cv::bioinspired::RetinaParameters::OPLandIplParvoParameters", ptr %76, i32 0, i32 6
  store float %74, ptr %77, align 4, !tbaa !83
  %78 = load float, ptr %19, align 4, !tbaa !16
  %79 = getelementptr inbounds nuw %"class.cv::bioinspired::RetinaImpl", ptr %23, i32 0, i32 1
  %80 = getelementptr inbounds nuw %"struct.cv::bioinspired::RetinaParameters", ptr %79, i32 0, i32 0
  %81 = getelementptr inbounds nuw %"struct.cv::bioinspired::RetinaParameters::OPLandIplParvoParameters", ptr %80, i32 0, i32 7
  store float %78, ptr %81, align 8, !tbaa !84
  %82 = load float, ptr %20, align 4, !tbaa !16
  %83 = getelementptr inbounds nuw %"class.cv::bioinspired::RetinaImpl", ptr %23, i32 0, i32 1
  %84 = getelementptr inbounds nuw %"struct.cv::bioinspired::RetinaParameters", ptr %83, i32 0, i32 0
  %85 = getelementptr inbounds nuw %"struct.cv::bioinspired::RetinaParameters::OPLandIplParvoParameters", ptr %84, i32 0, i32 8
  store float %82, ptr %85, align 4, !tbaa !85
  ret void
}