; Function Attrs: mustprogress uwtable
define hidden void @_ZN2cv11bioinspired10RetinaImpl26setupOPLandIPLParvoChannelEbbfffffff(ptr noundef nonnull align 8 captures(none) dereferenceable(112) initializes((8, 10), (12, 40)) %0, i1 noundef zeroext %1, i1 noundef zeroext %2, float noundef %3, float noundef %4, float noundef %5, float noundef %6, float noundef %7, float noundef %8, float noundef %9) unnamed_addr #3 align 2 {
  %11 = zext i1 %1 to i8
  %12 = zext i1 %2 to i8
  %13 = getelementptr inbounds nuw i8, ptr %0, i64 88
  %14 = load ptr, ptr %13, align 8, !tbaa !70
  %15 = getelementptr inbounds nuw i8, ptr %14, i64 1216
  store i8 %11, ptr %15, align 8, !tbaa !103
  %16 = fsub float 1.000000e+00, %3
  %17 = getelementptr inbounds nuw i8, ptr %14, i64 188
  %18 = load float, ptr %17, align 4, !tbaa !104
  %19 = fmul float %16, %18
  %20 = getelementptr inbounds nuw i8, ptr %14, i64 184
  store float %19, ptr %20, align 8, !tbaa !105
  %21 = getelementptr inbounds nuw i8, ptr %14, i64 196
  store float %16, ptr %21, align 4, !tbaa !106
  %22 = fsub float 1.000000e+00, %16
  %23 = fmul float %22, %18
  %24 = getelementptr inbounds nuw i8, ptr %14, i64 200
  store float %23, ptr %24, align 8, !tbaa !107
  tail call void @_ZN2cv11bioinspired12RetinaFilter19_setInitPeriodCountEv(ptr noundef nonnull align 8 dereferenceable(1217) %14)
  %25 = load ptr, ptr %13, align 8, !tbaa !70
  %26 = getelementptr inbounds nuw i8, ptr %25, i64 216
  tail call void @_ZN2cv11bioinspired17ParvoRetinaFilter31setOPLandParvoFiltersParametersEffffff(ptr noundef nonnull align 8 dereferenceable(304) %26, float noundef 0.000000e+00, float noundef %4, float noundef %5, float noundef %6, float noundef %7, float noundef %8)
  %27 = getelementptr inbounds nuw i8, ptr %25, i64 364
  %28 = load float, ptr %27, align 4, !tbaa !104
  %29 = fmul float %9, %28
  %30 = getelementptr inbounds nuw i8, ptr %25, i64 360
  store float %29, ptr %30, align 8, !tbaa !105
  %31 = getelementptr inbounds nuw i8, ptr %25, i64 372
  store float %9, ptr %31, align 4, !tbaa !106
  %32 = fsub float 1.000000e+00, %9
  %33 = fmul float %32, %28
  %34 = getelementptr inbounds nuw i8, ptr %25, i64 376
  store float %33, ptr %34, align 8, !tbaa !107
  tail call void @_ZN2cv11bioinspired12RetinaFilter19_setInitPeriodCountEv(ptr noundef nonnull align 8 dereferenceable(1217) %25)
  %35 = load ptr, ptr %13, align 8, !tbaa !70
  %36 = getelementptr inbounds nuw i8, ptr %35, i64 364
  %37 = load float, ptr %36, align 4, !tbaa !104
  %38 = fmul float %9, %37
  %39 = getelementptr inbounds nuw i8, ptr %35, i64 360
  store float %38, ptr %39, align 8, !tbaa !105
  %40 = getelementptr inbounds nuw i8, ptr %35, i64 372
  store float %9, ptr %40, align 4, !tbaa !106
  %41 = fmul float %32, %37
  %42 = getelementptr inbounds nuw i8, ptr %35, i64 376
  store float %41, ptr %42, align 8, !tbaa !107
  tail call void @_ZN2cv11bioinspired12RetinaFilter19_setInitPeriodCountEv(ptr noundef nonnull align 8 dereferenceable(1217) %35)
  %43 = load ptr, ptr %13, align 8, !tbaa !70
  %44 = getelementptr inbounds nuw i8, ptr %43, i64 1209
  store i8 %12, ptr %44, align 1, !tbaa !108
  %45 = getelementptr inbounds nuw i8, ptr %0, i64 8
  store i8 %11, ptr %45, align 8, !tbaa !69
  %46 = getelementptr inbounds nuw i8, ptr %0, i64 9
  store i8 %12, ptr %46, align 1, !tbaa !95
  %47 = getelementptr inbounds nuw i8, ptr %0, i64 12
  store float %3, ptr %47, align 4, !tbaa !96
  %48 = getelementptr inbounds nuw i8, ptr %0, i64 16
  store float %4, ptr %48, align 8, !tbaa !97
  %49 = getelementptr inbounds nuw i8, ptr %0, i64 20
  store float %5, ptr %49, align 4, !tbaa !98
  %50 = getelementptr inbounds nuw i8, ptr %0, i64 24
  store float %6, ptr %50, align 8, !tbaa !99
  %51 = getelementptr inbounds nuw i8, ptr %0, i64 28
  store float %7, ptr %51, align 4, !tbaa !100
  %52 = getelementptr inbounds nuw i8, ptr %0, i64 32
  store float %8, ptr %52, align 8, !tbaa !101
  %53 = getelementptr inbounds nuw i8, ptr %0, i64 36
  store float %9, ptr %53, align 4, !tbaa !102
  ret void
}